; Function Attrs: mustprogress nofree norecurse nosync nounwind willreturn memory(read, inaccessiblemem: none) uwtable
define noundef i32 @_ZNK7glslang8TProgram12getLocalSizeEi(ptr noundef nonnull readonly align 8 captures(none) dereferenceable(497) %0, i32 noundef %1) local_unnamed_addr #10 align 2 {
  %3 = icmp slt i32 %1, 3
  br i1 %3, label %4, label %_ZNK7glslang11TReflection12getLocalSizeEi.exit

4:                                                ; preds = %2
  %5 = getelementptr inbounds nuw i8, ptr %0, i64 488
  %6 = load ptr, ptr %5, align 8
  %7 = getelementptr inbounds nuw i8, ptr %6, i64 416
  %8 = sext i32 %1 to i64
  %9 = getelementptr inbounds [3 x i32], ptr %7, i64 0, i64 %8
  %10 = load i32, ptr %9, align 4
  br label %_ZNK7glslang11TReflection12getLocalSizeEi.exit

_ZNK7glslang11TReflection12getLocalSizeEi.exit:   ; preds = %2, %4
  %11 = phi i32 [ %10, %4 ], [ 0, %2 ]
  ret i32 %11
}